; Function Attrs: mustprogress nofree norecurse nosync nounwind willreturn memory(argmem: readwrite) uwtable
define dso_local void @_ZN23btReducedDeformableBody17applyRigidGravityERK9btVector3f(ptr noundef nonnull align 8 captures(none) dereferenceable(3176) %0, ptr noundef nonnull readonly align 4 captures(none) dereferenceable(16) %1, float noundef %2) local_unnamed_addr #18 align 2 {
  %4 = load float, ptr %1, align 4, !tbaa !138
  %5 = fmul float %2, %4
  %6 = getelementptr inbounds nuw i8, ptr %1, i64 4
  %7 = load float, ptr %6, align 4, !tbaa !138
  %8 = fmul float %2, %7
  %9 = getelementptr inbounds nuw i8, ptr %1, i64 8
  %10 = load float, ptr %9, align 4, !tbaa !138
  %11 = fmul float %2, %10
  %12 = getelementptr inbounds nuw i8, ptr %0, i64 2360
  %13 = load float, ptr %12, align 8, !tbaa !138
  %14 = fadd float %5, %13
  store float %14, ptr %12, align 8, !tbaa !138
  %15 = getelementptr inbounds nuw i8, ptr %0, i64 2364
  %16 = load float, ptr %15, align 4, !tbaa !138
  %17 = fadd float %8, %16
  store float %17, ptr %15, align 4, !tbaa !138
  %18 = getelementptr inbounds nuw i8, ptr %0, i64 2368
  %19 = load float, ptr %18, align 8, !tbaa !138
  %20 = fadd float %11, %19
  store float %20, ptr %18, align 8, !tbaa !138
  ret void
}